target datalayout = "e-m:e-p270:32:32-p271:32:32-p272:64:64-i64:64-i128:128-f80:128-n8:16:32:64-S128"
target triple = "x86_64-pc-linux-gnu"

%struct.Qureg = type { i32, i32, i32, i64, i64, i32, i32, %struct.ComplexArray, %struct.ComplexArray, %struct.ComplexArray, ptr, ptr, ptr, ptr, ptr, ptr }
%struct.ComplexArray = type { ptr, ptr }

@__func__.calcProbOfOutcome = private unnamed_addr constant [18 x i8] c"calcProbOfOutcome\00", align 1

; Function Attrs: nounwind uwtable
define double @calcProbOfOutcome(ptr noundef byval(%struct.Qureg) align 8 %0, i32 noundef %1, i32 noundef %2) #0 {
  %4 = alloca double, align 8
  %5 = alloca i32, align 4
  %6 = alloca i32, align 4
  store i32 %1, ptr %5, align 4, !tbaa !4
  store i32 %2, ptr %6, align 4, !tbaa !4
  %7 = load i32, ptr %5, align 4, !tbaa !4
  call void @validateTarget(ptr noundef byval(%struct.Qureg) align 8 %0, i32 noundef %7, ptr noundef @__func__.calcProbOfOutcome)
  %8 = load i32, ptr %6, align 4, !tbaa !4
  call void @validateOutcome(i32 noundef %8, ptr noundef @__func__.calcProbOfOutcome)
  %9 = getelementptr inbounds nuw %struct.Qureg, ptr %0, i32 0, i32 0
  %10 = load i32, ptr %9, align 8, !tbaa !13
  %11 = icmp ne i32 %10, 0
  br i1 %11, label %12, label %16

12:                                               ; preds = %3
  %13 = load i32, ptr %5, align 4, !tbaa !4
  %14 = load i32, ptr %6, align 4, !tbaa !4
  %15 = call double @densmatr_calcProbOfOutcome(ptr noundef byval(%struct.Qureg) align 8 %0, i32 noundef %13, i32 noundef %14)
  store double %15, ptr %4, align 8
  br label %20

16:                                               ; preds = %3
  %17 = load i32, ptr %5, align 4, !tbaa !4
  %18 = load i32, ptr %6, align 4, !tbaa !4
  %19 = call double @statevec_calcProbOfOutcome(ptr noundef byval(%struct.Qureg) align 8 %0, i32 noundef %17, i32 noundef %18)
  store double %19, ptr %4, align 8
  br label %20

20:                                               ; preds = %16, %12
  %21 = load double, ptr %4, align 8
  ret double %21
}