; Function Attrs: nounwind uwtable
define double @calcProbOfOutcome(ptr noundef readonly byval(%struct.Qureg) align 8 captures(none) %0, i32 noundef %1, i32 noundef %2) local_unnamed_addr #0 {
  tail call void @validateTarget(ptr noundef nonnull byval(%struct.Qureg) align 8 %0, i32 noundef %1, ptr noundef nonnull @__func__.calcProbOfOutcome) #17
  tail call void @validateOutcome(i32 noundef %2, ptr noundef nonnull @__func__.calcProbOfOutcome) #17
  %4 = load i32, ptr %0, align 8, !tbaa !12
  %.not = icmp eq i32 %4, 0
  br i1 %.not, label %7, label %5

5:                                                ; preds = %3
  %6 = tail call double @densmatr_calcProbOfOutcome(ptr noundef nonnull byval(%struct.Qureg) align 8 %0, i32 noundef %1, i32 noundef %2) #17
  br label %9

7:                                                ; preds = %3
  %8 = tail call double @statevec_calcProbOfOutcome(ptr noundef nonnull byval(%struct.Qureg) align 8 %0, i32 noundef %1, i32 noundef %2) #17
  br label %9

9:                                                ; preds = %7, %5
  %.0 = phi double [ %6, %5 ], [ %8, %7 ]
  ret double %.0
}